target datalayout = "e-m:e-p270:32:32-p271:32:32-p272:64:64-i64:64-i128:128-f80:128-n8:16:32:64-S128"
target triple = "x86_64-pc-linux-gnu"

; Function Attrs: nounwind uwtable
define void @shiftSubregIndices(ptr noundef %0, ptr noundef %1, i32 noundef %2, i32 noundef %3) #0 {
  %5 = alloca ptr, align 8
  %6 = alloca ptr, align 8
  %7 = alloca i32, align 4
  %8 = alloca i32, align 4
  %9 = alloca i32, align 4
  %10 = alloca i32, align 4
  %11 = alloca i32, align 4
  %12 = alloca i32, align 4
  store ptr %0, ptr %5, align 8, !tbaa !4
  store ptr %1, ptr %6, align 8, !tbaa !4
  store i32 %2, ptr %7, align 4, !tbaa !9
  store i32 %3, ptr %8, align 4, !tbaa !9
  call void @llvm.lifetime.start.p0(i64 4, ptr %9) #8
  store i32 0, ptr %9, align 4, !tbaa !9
  call void @llvm.lifetime.start.p0(i64 4, ptr %10) #8
  store i32 0, ptr %10, align 4, !tbaa !9
  br label %13

13:                                               ; preds = %41, %4
  %14 = load i32, ptr %10, align 4, !tbaa !9
  %15 = load i32, ptr %7, align 4, !tbaa !9
  %16 = icmp slt i32 %14, %15
  br i1 %16, label %18, label %17

17:                                               ; preds = %13
  store i32 2, ptr %11, align 4
  call void @llvm.lifetime.end.p0(i64 4, ptr %10) #8
  br label %44

18:                                               ; preds = %13
  call void @llvm.lifetime.start.p0(i64 4, ptr %12) #8
  store i32 0, ptr %12, align 4, !tbaa !9
  br label %19

19:                                               ; preds = %37, %18
  %20 = load i32, ptr %12, align 4, !tbaa !9
  %21 = load ptr, ptr %6, align 8, !tbaa !4
  %22 = load i32, ptr %10, align 4, !tbaa !9
  %23 = sext i32 %22 to i64
  %24 = getelementptr inbounds i32, ptr %21, i64 %23
  %25 = load i32, ptr %24, align 4, !tbaa !9
  %26 = icmp slt i32 %20, %25
  br i1 %26, label %28, label %27

27:                                               ; preds = %19
  store i32 5, ptr %11, align 4
  call void @llvm.lifetime.end.p0(i64 4, ptr %12) #8
  br label %40

28:                                               ; preds = %19
  %29 = load i32, ptr %8, align 4, !tbaa !9
  %30 = load ptr, ptr %5, align 8, !tbaa !4
  %31 = load i32, ptr %9, align 4, !tbaa !9
  %32 = add nsw i32 %31, 1
  store i32 %32, ptr %9, align 4, !tbaa !9
  %33 = sext i32 %31 to i64
  %34 = getelementptr inbounds i32, ptr %30, i64 %33
  %35 = load i32, ptr %34, align 4, !tbaa !9
  %36 = add nsw i32 %35, %29
  store i32 %36, ptr %34, align 4, !tbaa !9
  br label %37

37:                                               ; preds = %28
  %38 = load i32, ptr %12, align 4, !tbaa !9
  %39 = add nsw i32 %38, 1
  store i32 %39, ptr %12, align 4, !tbaa !9
  br label %19

40:                                               ; preds = %27
  br label %41

41:                                               ; preds = %40
  %42 = load i32, ptr %10, align 4, !tbaa !9
  %43 = add nsw i32 %42, 1
  store i32 %43, ptr %10, align 4, !tbaa !9
  br label %13

44:                                               ; preds = %17
  call void @llvm.lifetime.end.p0(i64 4, ptr %9) #8
  ret void
}