; Function Attrs: nofree norecurse nosync nounwind memory(argmem: readwrite) uwtable
define void @shiftSubregIndices(ptr noundef captures(none) %0, ptr noundef readonly captures(none) %1, i32 noundef %2, i32 noundef %3) local_unnamed_addr #7 {
  %5 = icmp sgt i32 %2, 0
  br i1 %5, label %.preheader.preheader, label %._crit_edge15

.preheader.preheader:                             ; preds = %4
  %wide.trip.count = zext nneg i32 %2 to i64
  br label %.preheader

.preheader:                                       ; preds = %.preheader.preheader, %._crit_edge
  %indvars.iv17 = phi i64 [ 0, %.preheader.preheader ], [ %indvars.iv.next18, %._crit_edge ]
  %.01013 = phi i32 [ 0, %.preheader.preheader ], [ %.1.lcssa, %._crit_edge ]
  %6 = getelementptr inbounds nuw i32, ptr %1, i64 %indvars.iv17
  %7 = load i32, ptr %6, align 4, !tbaa !4
  %8 = icmp sgt i32 %7, 0
  br i1 %8, label %.lr.ph.preheader, label %._crit_edge

.lr.ph.preheader:                                 ; preds = %.preheader
  %9 = sext i32 %.01013 to i64
  br label %.lr.ph

._crit_edge15:                                    ; preds = %._crit_edge, %4
  ret void

._crit_edge.loopexit:                             ; preds = %.lr.ph
  %10 = trunc nsw i64 %indvars.iv.next to i32
  br label %._crit_edge

._crit_edge:                                      ; preds = %._crit_edge.loopexit, %.preheader
  %.1.lcssa = phi i32 [ %.01013, %.preheader ], [ %10, %._crit_edge.loopexit ]
  %indvars.iv.next18 = add nuw nsw i64 %indvars.iv17, 1
  %exitcond.not = icmp eq i64 %indvars.iv.next18, %wide.trip.count
  br i1 %exitcond.not, label %._crit_edge15, label %.preheader

.lr.ph:                                           ; preds = %.lr.ph.preheader, %.lr.ph
  %indvars.iv = phi i64 [ %9, %.lr.ph.preheader ], [ %indvars.iv.next, %.lr.ph ]
  %.012 = phi i32 [ 0, %.lr.ph.preheader ], [ %14, %.lr.ph ]
  %indvars.iv.next = add nsw i64 %indvars.iv, 1
  %11 = getelementptr inbounds i32, ptr %0, i64 %indvars.iv
  %12 = load i32, ptr %11, align 4, !tbaa !4
  %13 = add nsw i32 %12, %3
  store i32 %13, ptr %11, align 4, !tbaa !4
  %14 = add nuw nsw i32 %.012, 1
  %15 = load i32, ptr %6, align 4, !tbaa !4
  %16 = icmp slt i32 %14, %15
  br i1 %16, label %.lr.ph, label %._crit_edge.loopexit
}